target datalayout = "e-m:e-p270:32:32-p271:32:32-p272:64:64-i64:64-i128:128-f80:128-n8:16:32:64-S128"
target triple = "x86_64-pc-linux-gnu"

%struct.Gia_Man_t_ = type { ptr, ptr, i32, i32, i32, i32, ptr, ptr, i32, i32, i32, ptr, ptr, %struct.Vec_Int_t_, %struct.Vec_Int_t_, i32, i32, i32, %struct.Vec_Int_t_, ptr, ptr, ptr, i32, i32, i32, i32, ptr, ptr, ptr, ptr, ptr, i32, i32, ptr, i32, ptr, ptr, ptr, ptr, ptr, ptr, ptr, ptr, ptr, ptr, ptr, ptr, ptr, ptr, ptr, ptr, ptr, ptr, %struct.Vec_Int_t_, %struct.Vec_Int_t_, ptr, ptr, ptr, ptr, ptr, ptr, ptr, ptr, ptr, ptr, ptr, ptr, ptr, ptr, ptr, ptr, ptr, ptr, ptr, ptr, ptr, i32, float, float, ptr, ptr, i32, ptr, ptr, ptr, ptr, ptr, ptr, ptr, ptr, ptr, ptr, ptr, ptr, ptr, ptr, ptr, i64, i64, ptr, ptr, i32, i32, i32, i32, i32, i32, i32, i32, i32, i32, i32, i32, ptr, ptr, ptr, ptr, ptr, ptr, ptr, ptr, i32, i32, i32, ptr, i32, i32, ptr, ptr, ptr, ptr, ptr, ptr, i32, i32, ptr, %struct.Vec_Int_t_, %struct.Vec_Int_t_, %struct.Vec_Int_t_, ptr, ptr, ptr, i32, i32, i32, i32, ptr, ptr, ptr, ptr, ptr }
%struct.Vec_Int_t_ = type { i32, i32, ptr }
%struct.Gia_Obj_t_ = type <{ i64, i32 }>

@.str = private unnamed_addr constant [14 x i8] c"   Fanouts : \00", align 1
@.str.1 = private unnamed_addr constant [5 x i8] c"%5d \00", align 1
@.str.2 = private unnamed_addr constant [2 x i8] c"\0A\00", align 1

; Function Attrs: inlinehint nounwind uwtable
define internal i32 @Gia_ObjFoffsetId(ptr noundef %0, i32 noundef %1) #2 {
  %3 = alloca ptr, align 8
  %4 = alloca i32, align 4
  store ptr %0, ptr %3, align 8, !tbaa !3
  store i32 %1, ptr %4, align 4, !tbaa !30
  %5 = load ptr, ptr %3, align 8, !tbaa !3
  %6 = getelementptr inbounds nuw %struct.Gia_Man_t_, ptr %5, i32 0, i32 36
  %7 = load ptr, ptr %6, align 8, !tbaa !47
  %8 = load i32, ptr %4, align 4, !tbaa !30
  %9 = call i32 @Vec_IntEntry(ptr noundef %7, i32 noundef %8)
  ret i32 %9
}

; Function Attrs: inlinehint nounwind uwtable
define internal i32 @Vec_IntEntry(ptr noundef %0, i32 noundef %1) #2 {
  %3 = alloca ptr, align 8
  %4 = alloca i32, align 4
  store ptr %0, ptr %3, align 8, !tbaa !37
  store i32 %1, ptr %4, align 4, !tbaa !30
  %5 = load ptr, ptr %3, align 8, !tbaa !37
  %6 = getelementptr inbounds nuw %struct.Vec_Int_t_, ptr %5, i32 0, i32 2
  %7 = load ptr, ptr %6, align 8, !tbaa !40
  %8 = load i32, ptr %4, align 4, !tbaa !30
  %9 = sext i32 %8 to i64
  %10 = getelementptr inbounds i32, ptr %7, i64 %9
  %11 = load i32, ptr %10, align 4, !tbaa !30
  ret i32 %11
}

; Function Attrs: inlinehint nounwind uwtable
define internal void @Vec_IntFreeP(ptr noundef %0) #2 {
  %2 = alloca ptr, align 8
  store ptr %0, ptr %2, align 8, !tbaa !58
  %3 = load ptr, ptr %2, align 8, !tbaa !58
  %4 = load ptr, ptr %3, align 8, !tbaa !37
  %5 = icmp eq ptr %4, null
  br i1 %5, label %6, label %7

6:                                                ; preds = %1
  br label %32

7:                                                ; preds = %1
  %8 = load ptr, ptr %2, align 8, !tbaa !58
  %9 = load ptr, ptr %8, align 8, !tbaa !37
  %10 = getelementptr inbounds nuw %struct.Vec_Int_t_, ptr %9, i32 0, i32 2
  %11 = load ptr, ptr %10, align 8, !tbaa !40
  %12 = icmp ne ptr %11, null
  br i1 %12, label %13, label %21

13:                                               ; preds = %7
  %14 = load ptr, ptr %2, align 8, !tbaa !58
  %15 = load ptr, ptr %14, align 8, !tbaa !37
  %16 = getelementptr inbounds nuw %struct.Vec_Int_t_, ptr %15, i32 0, i32 2
  %17 = load ptr, ptr %16, align 8, !tbaa !40
  call void @free(ptr noundef %17) #8
  %18 = load ptr, ptr %2, align 8, !tbaa !58
  %19 = load ptr, ptr %18, align 8, !tbaa !37
  %20 = getelementptr inbounds nuw %struct.Vec_Int_t_, ptr %19, i32 0, i32 2
  store ptr null, ptr %20, align 8, !tbaa !40
  br label %22

21:                                               ; preds = %7
  br label %22

22:                                               ; preds = %21, %13
  %23 = load ptr, ptr %2, align 8, !tbaa !58
  %24 = load ptr, ptr %23, align 8, !tbaa !37
  %25 = icmp ne ptr %24, null
  br i1 %25, label %26, label %30

26:                                               ; preds = %22
  %27 = load ptr, ptr %2, align 8, !tbaa !58
  %28 = load ptr, ptr %27, align 8, !tbaa !37
  call void @free(ptr noundef %28) #8
  %29 = load ptr, ptr %2, align 8, !tbaa !58
  store ptr null, ptr %29, align 8, !tbaa !37
  br label %31

30:                                               ; preds = %22
  br label %31

31:                                               ; preds = %30, %26
  br label %32

32:                                               ; preds = %31, %6
  ret void
}

; Function Attrs: inlinehint nounwind uwtable
define internal i32 @Gia_ObjFanoutId(ptr noundef %0, i32 noundef %1, i32 noundef %2) #2 {
  %4 = alloca ptr, align 8
  %5 = alloca i32, align 4
  %6 = alloca i32, align 4
  store ptr %0, ptr %4, align 8, !tbaa !3
  store i32 %1, ptr %5, align 4, !tbaa !30
  store i32 %2, ptr %6, align 4, !tbaa !30
  %7 = load ptr, ptr %4, align 8, !tbaa !3
  %8 = getelementptr inbounds nuw %struct.Gia_Man_t_, ptr %7, i32 0, i32 36
  %9 = load ptr, ptr %8, align 8, !tbaa !47
  %10 = load ptr, ptr %4, align 8, !tbaa !3
  %11 = load i32, ptr %5, align 4, !tbaa !30
  %12 = call i32 @Gia_ObjFoffsetId(ptr noundef %10, i32 noundef %11)
  %13 = load i32, ptr %6, align 4, !tbaa !30
  %14 = add nsw i32 %12, %13
  %15 = call i32 @Vec_IntEntry(ptr noundef %9, i32 noundef %14)
  ret i32 %15
}

; Function Attrs: inlinehint nounwind uwtable
define internal i32 @Gia_ObjFanoutNumId(ptr noundef %0, i32 noundef %1) #2 {
  %3 = alloca ptr, align 8
  %4 = alloca i32, align 4
  store ptr %0, ptr %3, align 8, !tbaa !3
  store i32 %1, ptr %4, align 4, !tbaa !30
  %5 = load ptr, ptr %3, align 8, !tbaa !3
  %6 = getelementptr inbounds nuw %struct.Gia_Man_t_, ptr %5, i32 0, i32 35
  %7 = load ptr, ptr %6, align 8, !tbaa !46
  %8 = load i32, ptr %4, align 4, !tbaa !30
  %9 = call i32 @Vec_IntEntry(ptr noundef %7, i32 noundef %8)
  ret i32 %9
}

; Function Attrs: nounwind uwtable
define void @Gia_ManStaticFanoutStop(ptr noundef %0) #0 {
  %2 = alloca ptr, align 8
  store ptr %0, ptr %2, align 8, !tbaa !3
  %3 = load ptr, ptr %2, align 8, !tbaa !3
  %4 = getelementptr inbounds nuw %struct.Gia_Man_t_, ptr %3, i32 0, i32 35
  call void @Vec_IntFreeP(ptr noundef %4)
  %5 = load ptr, ptr %2, align 8, !tbaa !3
  %6 = getelementptr inbounds nuw %struct.Gia_Man_t_, ptr %5, i32 0, i32 36
  call void @Vec_IntFreeP(ptr noundef %6)
  ret void
}

; Function Attrs: inlinehint nounwind uwtable
define internal i32 @Gia_ObjId(ptr noundef %0, ptr noundef %1) #2 {
  %3 = alloca ptr, align 8
  %4 = alloca ptr, align 8
  store ptr %0, ptr %3, align 8, !tbaa !3
  store ptr %1, ptr %4, align 8, !tbaa !32
  %5 = load ptr, ptr %4, align 8, !tbaa !32
  %6 = load ptr, ptr %3, align 8, !tbaa !3
  %7 = getelementptr inbounds nuw %struct.Gia_Man_t_, ptr %6, i32 0, i32 6
  %8 = load ptr, ptr %7, align 8, !tbaa !35
  %9 = ptrtoint ptr %5 to i64
  %10 = ptrtoint ptr %8 to i64
  %11 = sub i64 %9, %10
  %12 = sdiv exact i64 %11, 12
  %13 = trunc i64 %12 to i32
  ret i32 %13
}

; Function Attrs: inlinehint nounwind uwtable
define internal ptr @Gia_ObjFanout(ptr noundef %0, ptr noundef %1, i32 noundef %2) #2 {
  %4 = alloca ptr, align 8
  %5 = alloca ptr, align 8
  %6 = alloca i32, align 4
  store ptr %0, ptr %4, align 8, !tbaa !3
  store ptr %1, ptr %5, align 8, !tbaa !32
  store i32 %2, ptr %6, align 4, !tbaa !30
  %7 = load ptr, ptr %4, align 8, !tbaa !3
  %8 = load ptr, ptr %4, align 8, !tbaa !3
  %9 = load ptr, ptr %4, align 8, !tbaa !3
  %10 = load ptr, ptr %5, align 8, !tbaa !32
  %11 = call i32 @Gia_ObjId(ptr noundef %9, ptr noundef %10)
  %12 = load i32, ptr %6, align 4, !tbaa !30
  %13 = call i32 @Gia_ObjFanoutId(ptr noundef %8, i32 noundef %11, i32 noundef %12)
  %14 = call ptr @Gia_ManObj(ptr noundef %7, i32 noundef %13)
  ret ptr %14
}

; Function Attrs: inlinehint nounwind uwtable
define internal i32 @Gia_ObjFanoutNum(ptr noundef %0, ptr noundef %1) #2 {
  %3 = alloca ptr, align 8
  %4 = alloca ptr, align 8
  store ptr %0, ptr %3, align 8, !tbaa !3
  store ptr %1, ptr %4, align 8, !tbaa !32
  %5 = load ptr, ptr %3, align 8, !tbaa !3
  %6 = load ptr, ptr %3, align 8, !tbaa !3
  %7 = load ptr, ptr %4, align 8, !tbaa !32
  %8 = call i32 @Gia_ObjId(ptr noundef %6, ptr noundef %7)
  %9 = call i32 @Gia_ObjFanoutNumId(ptr noundef %5, i32 noundef %8)
  ret i32 %9
}

; Function Attrs: inlinehint nounwind uwtable
define internal ptr @Gia_ManObj(ptr noundef %0, i32 noundef %1) #2 {
  %3 = alloca ptr, align 8
  %4 = alloca i32, align 4
  store ptr %0, ptr %3, align 8, !tbaa !3
  store i32 %1, ptr %4, align 4, !tbaa !30
  %5 = load ptr, ptr %3, align 8, !tbaa !3
  %6 = getelementptr inbounds nuw %struct.Gia_Man_t_, ptr %5, i32 0, i32 6
  %7 = load ptr, ptr %6, align 8, !tbaa !35
  %8 = load i32, ptr %4, align 4, !tbaa !30
  %9 = sext i32 %8 to i64
  %10 = getelementptr inbounds %struct.Gia_Obj_t_, ptr %7, i64 %9
  ret ptr %10
}

; Function Attrs: nounwind uwtable
define void @Gia_ManStaticFanoutTest(ptr noundef %0) #0 {
  %2 = alloca ptr, align 8
  %3 = alloca ptr, align 8
  %4 = alloca ptr, align 8
  %5 = alloca i32, align 4
  %6 = alloca i32, align 4
  store ptr %0, ptr %2, align 8, !tbaa !3
  call void @llvm.lifetime.start.p0(i64 8, ptr %3) #8
  call void @llvm.lifetime.start.p0(i64 8, ptr %4) #8
  call void @llvm.lifetime.start.p0(i64 4, ptr %5) #8
  call void @llvm.lifetime.start.p0(i64 4, ptr %6) #8
  %7 = load ptr, ptr %2, align 8, !tbaa !3
  call void @Gia_ManStaticFanoutStart(ptr noundef %7)
  store i32 0, ptr %5, align 4, !tbaa !30
  br label %8

8:                                                ; preds = %48, %1
  %9 = load i32, ptr %5, align 4, !tbaa !30
  %10 = load ptr, ptr %2, align 8, !tbaa !3
  %11 = getelementptr inbounds nuw %struct.Gia_Man_t_, ptr %10, i32 0, i32 4
  %12 = load i32, ptr %11, align 8, !tbaa !31
  %13 = icmp slt i32 %9, %12
  br i1 %13, label %14, label %19

14:                                               ; preds = %8
  %15 = load ptr, ptr %2, align 8, !tbaa !3
  %16 = load i32, ptr %5, align 4, !tbaa !30
  %17 = call ptr @Gia_ManObj(ptr noundef %15, i32 noundef %16)
  store ptr %17, ptr %3, align 8, !tbaa !32
  %18 = icmp ne ptr %17, null
  br label %19

19:                                               ; preds = %14, %8
  %20 = phi i1 [ false, %8 ], [ %18, %14 ]
  br i1 %20, label %21, label %51

21:                                               ; preds = %19
  %22 = load ptr, ptr %2, align 8, !tbaa !3
  %23 = load ptr, ptr %3, align 8, !tbaa !32
  call void @Gia_ObjPrint(ptr noundef %22, ptr noundef %23)
  %24 = call i32 (ptr, ...) @printf(ptr noundef @.str)
  store i32 0, ptr %6, align 4, !tbaa !30
  br label %25

25:                                               ; preds = %43, %21
  %26 = load i32, ptr %6, align 4, !tbaa !30
  %27 = load ptr, ptr %2, align 8, !tbaa !3
  %28 = load ptr, ptr %3, align 8, !tbaa !32
  %29 = call i32 @Gia_ObjFanoutNum(ptr noundef %27, ptr noundef %28)
  %30 = icmp slt i32 %26, %29
  br i1 %30, label %31, label %36

31:                                               ; preds = %25
  %32 = load ptr, ptr %2, align 8, !tbaa !3
  %33 = load ptr, ptr %3, align 8, !tbaa !32
  %34 = load i32, ptr %6, align 4, !tbaa !30
  %35 = call ptr @Gia_ObjFanout(ptr noundef %32, ptr noundef %33, i32 noundef %34)
  store ptr %35, ptr %4, align 8, !tbaa !32
  br label %36

36:                                               ; preds = %31, %25
  %37 = phi i1 [ false, %25 ], [ true, %31 ]
  br i1 %37, label %38, label %46

38:                                               ; preds = %36
  %39 = load ptr, ptr %2, align 8, !tbaa !3
  %40 = load ptr, ptr %4, align 8, !tbaa !32
  %41 = call i32 @Gia_ObjId(ptr noundef %39, ptr noundef %40)
  %42 = call i32 (ptr, ...) @printf(ptr noundef @.str.1, i32 noundef %41)
  br label %43

43:                                               ; preds = %38
  %44 = load i32, ptr %6, align 4, !tbaa !30
  %45 = add nsw i32 %44, 1
  store i32 %45, ptr %6, align 4, !tbaa !30
  br label %25, !llvm.loop !65

46:                                               ; preds = %36
  %47 = call i32 (ptr, ...) @printf(ptr noundef @.str.2)
  br label %48

48:                                               ; preds = %46
  %49 = load i32, ptr %5, align 4, !tbaa !30
  %50 = add nsw i32 %49, 1
  store i32 %50, ptr %5, align 4, !tbaa !30
  br label %8, !llvm.loop !66

51:                                               ; preds = %19
  %52 = load ptr, ptr %2, align 8, !tbaa !3
  call void @Gia_ManStaticFanoutStop(ptr noundef %52)
  call void @llvm.lifetime.end.p0(i64 4, ptr %6) #8
  call void @llvm.lifetime.end.p0(i64 4, ptr %5) #8
  call void @llvm.lifetime.end.p0(i64 8, ptr %4) #8
  call void @llvm.lifetime.end.p0(i64 8, ptr %3) #8
  ret void
}