; Function Attrs: nounwind uwtable
define void @Gia_ManStaticFanoutTest(ptr noundef %0) local_unnamed_addr #0 {
  tail call void @Gia_ManStaticFanoutStart(ptr noundef %0)
  %2 = getelementptr i8, ptr %0, i64 32
  %3 = getelementptr inbounds nuw i8, ptr %0, i64 24
  %4 = load i32, ptr %3, align 8, !tbaa !3
  %5 = icmp sgt i32 %4, 0
  br i1 %5, label %.lr.ph33, label %.critedge

.lr.ph33:                                         ; preds = %1
  %6 = getelementptr i8, ptr %0, i64 248
  %7 = getelementptr i8, ptr %0, i64 256
  br label %8

8:                                                ; preds = %.lr.ph33, %.critedge2
  %indvars.iv = phi i64 [ 0, %.lr.ph33 ], [ %indvars.iv.next, %.critedge2 ]
  %.val = load ptr, ptr %2, align 8, !tbaa !30
  %.not = icmp eq ptr %.val, null
  br i1 %.not, label %.critedge, label %9

9:                                                ; preds = %8
  %10 = getelementptr inbounds nuw %struct.Gia_Obj_t_, ptr %.val, i64 %indvars.iv
  tail call void @Gia_ObjPrint(ptr noundef nonnull %0, ptr noundef nonnull %10) #15
  %11 = tail call i32 (ptr, ...) @printf(ptr noundef nonnull dereferenceable(1) @.str)
  %12 = ptrtoint ptr %10 to i64
  %.val2227 = load ptr, ptr %2, align 8, !tbaa !30
  %.val2328 = load ptr, ptr %6, align 8, !tbaa !44
  %13 = getelementptr i8, ptr %.val2328, i64 8
  %.val23.val29 = load ptr, ptr %13, align 8, !tbaa !41
  %14 = ptrtoint ptr %.val2227 to i64
  %15 = sub i64 %12, %14
  %16 = sdiv exact i64 %15, 12
  %sext.i30 = shl i64 %16, 32
  %17 = ashr exact i64 %sext.i30, 30
  %18 = getelementptr inbounds i8, ptr %.val23.val29, i64 %17
  %19 = load i32, ptr %18, align 4, !tbaa !34
  %20 = icmp sgt i32 %19, 0
  br i1 %20, label %.lr.ph, label %.critedge2

.lr.ph:                                           ; preds = %9, %.lr.ph
  %21 = phi i64 [ %35, %.lr.ph ], [ %17, %9 ]
  %.031 = phi i32 [ %30, %.lr.ph ], [ 0, %9 ]
  %.val25 = load ptr, ptr %7, align 8, !tbaa !45
  %22 = getelementptr i8, ptr %.val25, i64 8
  %.val25.val = load ptr, ptr %22, align 8, !tbaa !41
  %23 = getelementptr inbounds i8, ptr %.val25.val, i64 %21
  %24 = load i32, ptr %23, align 4, !tbaa !34
  %25 = add nsw i32 %24, %.031
  %26 = sext i32 %25 to i64
  %27 = getelementptr inbounds i32, ptr %.val25.val, i64 %26
  %28 = load i32, ptr %27, align 4, !tbaa !34
  %29 = tail call i32 (ptr, ...) @printf(ptr noundef nonnull dereferenceable(1) @.str.1, i32 noundef %28)
  %30 = add nuw nsw i32 %.031, 1
  %.val22 = load ptr, ptr %2, align 8, !tbaa !30
  %.val23 = load ptr, ptr %6, align 8, !tbaa !44
  %31 = getelementptr i8, ptr %.val23, i64 8
  %.val23.val = load ptr, ptr %31, align 8, !tbaa !41
  %32 = ptrtoint ptr %.val22 to i64
  %33 = sub i64 %12, %32
  %34 = sdiv exact i64 %33, 12
  %sext.i = shl i64 %34, 32
  %35 = ashr exact i64 %sext.i, 30
  %36 = getelementptr inbounds i8, ptr %.val23.val, i64 %35
  %37 = load i32, ptr %36, align 4, !tbaa !34
  %38 = icmp slt i32 %30, %37
  br i1 %38, label %.lr.ph, label %.critedge2, !llvm.loop !54

.critedge2:                                       ; preds = %.lr.ph, %9
  %putchar = tail call i32 @putchar(i32 10)
  %indvars.iv.next = add nuw nsw i64 %indvars.iv, 1
  %39 = load i32, ptr %3, align 8, !tbaa !3
  %40 = sext i32 %39 to i64
  %41 = icmp slt i64 %indvars.iv.next, %40
  br i1 %41, label %8, label %.critedge, !llvm.loop !55

.critedge:                                        ; preds = %8, %.critedge2, %1
  %42 = getelementptr inbounds nuw i8, ptr %0, i64 248
  %43 = load ptr, ptr %42, align 8, !tbaa !49
  %44 = icmp eq ptr %43, null
  br i1 %44, label %Vec_IntFreeP.exit.i, label %45

45:                                               ; preds = %.critedge
  %46 = getelementptr inbounds nuw i8, ptr %43, i64 8
  %47 = load ptr, ptr %46, align 8, !tbaa !41
  %.not.i.i = icmp eq ptr %47, null
  br i1 %.not.i.i, label %50, label %.thread.i.i

.thread.i.i:                                      ; preds = %45
  tail call void @free(ptr noundef nonnull %47) #15
  %48 = load ptr, ptr %42, align 8, !tbaa !49
  %49 = getelementptr inbounds nuw i8, ptr %48, i64 8
  store ptr null, ptr %49, align 8, !tbaa !41
  br label %50

50:                                               ; preds = %.thread.i.i, %45
  %51 = phi ptr [ %48, %.thread.i.i ], [ %43, %45 ]
  tail call void @free(ptr noundef nonnull %51) #15
  store ptr null, ptr %42, align 8, !tbaa !49
  br label %Vec_IntFreeP.exit.i

Vec_IntFreeP.exit.i:                              ; preds = %50, %.critedge
  %52 = getelementptr inbounds nuw i8, ptr %0, i64 256
  %53 = load ptr, ptr %52, align 8, !tbaa !49
  %54 = icmp eq ptr %53, null
  br i1 %54, label %Gia_ManStaticFanoutStop.exit, label %55

55:                                               ; preds = %Vec_IntFreeP.exit.i
  %56 = getelementptr inbounds nuw i8, ptr %53, i64 8
  %57 = load ptr, ptr %56, align 8, !tbaa !41
  %.not.i2.i = icmp eq ptr %57, null
  br i1 %.not.i2.i, label %60, label %.thread.i3.i

.thread.i3.i:                                     ; preds = %55
  tail call void @free(ptr noundef nonnull %57) #15
  %58 = load ptr, ptr %52, align 8, !tbaa !49
  %59 = getelementptr inbounds nuw i8, ptr %58, i64 8
  store ptr null, ptr %59, align 8, !tbaa !41
  br label %60

60:                                               ; preds = %.thread.i3.i, %55
  %61 = phi ptr [ %58, %.thread.i3.i ], [ %53, %55 ]
  tail call void @free(ptr noundef nonnull %61) #15
  store ptr null, ptr %52, align 8, !tbaa !49
  br label %Gia_ManStaticFanoutStop.exit

Gia_ManStaticFanoutStop.exit:                     ; preds = %Vec_IntFreeP.exit.i, %60
  ret void
}